target datalayout = "e-m:e-p270:32:32-p271:32:32-p272:64:64-i64:64-i128:128-f80:128-n8:16:32:64-S128"
target triple = "x86_64-unknown-linux-gnu"

%"class.pugi::xpath_variable" = type { i32, ptr }
%"struct.pugi::impl::(anonymous namespace)::xpath_variable_number" = type <{ %"class.pugi::xpath_variable", double, [1 x i8], [7 x i8] }>

; Function Attrs: mustprogress nounwind uwtable
define noundef zeroext i1 @_ZN4pugi14xpath_variable3setEd(ptr noundef nonnull align 8 dereferenceable(16) %this, double noundef %value) #0 align 2 {
entry:
  %retval = alloca i1, align 1
  %this.addr = alloca ptr, align 8
  %value.addr = alloca double, align 8
  store ptr %this, ptr %this.addr, align 8
  store double %value, ptr %value.addr, align 8
  %this1 = load ptr, ptr %this.addr, align 8
  %_type = getelementptr inbounds %"class.pugi::xpath_variable", ptr %this1, i32 0, i32 0
  %0 = load i32, ptr %_type, align 8
  %cmp = icmp ne i32 %0, 2
  br i1 %cmp, label %if.then, label %if.end

if.then:                                          ; preds = %entry
  store i1 false, ptr %retval, align 1
  br label %return

if.end:                                           ; preds = %entry
  %1 = load double, ptr %value.addr, align 8
  %value2 = getelementptr inbounds %"struct.pugi::impl::(anonymous namespace)::xpath_variable_number", ptr %this1, i32 0, i32 1
  store double %1, ptr %value2, align 8
  store i1 true, ptr %retval, align 1
  br label %return

return:                                           ; preds = %if.end, %if.then
  %2 = load i1, ptr %retval, align 1
  ret i1 %2
}