; Function Attrs: mustprogress nofree norecurse nosync nounwind willreturn memory(argmem: readwrite) uwtable
define noundef zeroext i1 @_ZN4pugi14xpath_variable3setEd(ptr nocapture noundef nonnull align 8 dereferenceable(16) %this, double noundef %value) local_unnamed_addr #15 align 2 {
entry:
  %0 = load i32, ptr %this, align 8
  %cmp.not = icmp eq i32 %0, 2
  br i1 %cmp.not, label %if.end, label %return

if.end:                                           ; preds = %entry
  %value2 = getelementptr inbounds i8, ptr %this, i64 16
  store double %value, ptr %value2, align 8
  br label %return

return:                                           ; preds = %entry, %if.end
  ret i1 %cmp.not
}